; Function Attrs: mustprogress uwtable
define internal fastcc noundef zeroext i1 @_ZN3re2L18IsValidCaptureNameEN4absl7debian211string_viewE(ptr %name.coerce0, i64 %name.coerce1) unnamed_addr #8 personality ptr @__gxx_personality_v0 {
entry:
  %r = alloca i32, align 4
  %cmp.i = icmp eq i64 %name.coerce1, 0
  br i1 %cmp.i, label %return, label %if.end

if.end:                                           ; preds = %entry
  %0 = load atomic i8, ptr @_ZGVZN3re2L18IsValidCaptureNameEN4absl7debian211string_viewEE2cc acquire, align 8
  %guard.uninitialized = icmp eq i8 %0, 0
  br i1 %guard.uninitialized, label %init.check, label %while.cond.preheader, !prof !59

init.check:                                       ; preds = %if.end
  %1 = tail call i32 @__cxa_guard_acquire(ptr nonnull @_ZGVZN3re2L18IsValidCaptureNameEN4absl7debian211string_viewEE2cc) #25
  %tobool.not = icmp eq i32 %1, 0
  br i1 %tobool.not, label %while.cond.preheader, label %init

init:                                             ; preds = %init.check
  %call1 = invoke fastcc noundef ptr @"_ZZN3re2L18IsValidCaptureNameEN4absl7debian211string_viewEENK3$_0clEv"()
          to label %invoke.cont unwind label %lpad

invoke.cont:                                      ; preds = %init
  store ptr %call1, ptr @_ZZN3re2L18IsValidCaptureNameEN4absl7debian211string_viewEE2cc, align 8
  tail call void @__cxa_guard_release(ptr nonnull @_ZGVZN3re2L18IsValidCaptureNameEN4absl7debian211string_viewEE2cc) #25
  br label %while.cond.preheader

while.cond.preheader:                             ; preds = %invoke.cont, %init.check, %if.end
  br label %while.cond

while.cond:                                       ; preds = %while.cond.preheader, %if.end5
  %t.sroa.5.0 = phi i64 [ %sub.i.i, %if.end5 ], [ %name.coerce1, %while.cond.preheader ]
  %t.sroa.0.0 = phi ptr [ %add.ptr.i.i, %if.end5 ], [ %name.coerce0, %while.cond.preheader ]
  %cmp.i2 = icmp eq i64 %t.sroa.5.0, 0
  br i1 %cmp.i2, label %return, label %while.body

while.body:                                       ; preds = %while.cond
  %.sroa.speculated.i = call i64 @llvm.umin.i64(i64 %t.sroa.5.0, i64 4)
  %conv.i = trunc i64 %.sroa.speculated.i to i32
  %call4.i = call noundef i32 @_ZN3re28fullruneEPKci(ptr noundef %t.sroa.0.0, i32 noundef %conv.i)
  %tobool.not.i = icmp eq i32 %call4.i, 0
  br i1 %tobool.not.i, label %return, label %if.then.i

if.then.i:                                        ; preds = %while.body
  %call6.i = call noundef i32 @_ZN3re210chartoruneEPiPKc(ptr noundef nonnull %r, ptr noundef %t.sroa.0.0)
  %2 = load i32, ptr %r, align 4
  %cmp.i3 = icmp sgt i32 %2, 1114111
  br i1 %cmp.i3, label %return, label %if.end.i

if.end.i:                                         ; preds = %if.then.i
  %cmp8.i = icmp eq i32 %call6.i, 1
  %cmp9.i = icmp eq i32 %2, 65533
  %or.cond.i = and i1 %cmp8.i, %cmp9.i
  br i1 %or.cond.i, label %return, label %if.then10.i

if.then10.i:                                      ; preds = %if.end.i
  %conv11.i = sext i32 %call6.i to i64
  %cmp.not.i.i = icmp ult i64 %t.sroa.5.0, %conv11.i
  br i1 %cmp.not.i.i, label %cond.false.i.i, label %_ZN3re2L16StringViewToRuneEPiPN4absl7debian211string_viewEPNS_12RegexpStatusE.exit

cond.false.i.i:                                   ; preds = %if.then10.i
  call void @llvm.trap()
  unreachable

_ZN3re2L16StringViewToRuneEPiPN4absl7debian211string_viewEPNS_12RegexpStatusE.exit: ; preds = %if.then10.i
  %cmp = icmp slt i32 %call6.i, 0
  br i1 %cmp, label %return, label %if.end5

lpad:                                             ; preds = %init
  %3 = landingpad { ptr, i32 }
          cleanup
  tail call void @__cxa_guard_abort(ptr nonnull @_ZGVZN3re2L18IsValidCaptureNameEN4absl7debian211string_viewEE2cc) #25
  resume { ptr, i32 } %3

if.end5:                                          ; preds = %_ZN3re2L16StringViewToRuneEPiPN4absl7debian211string_viewEPNS_12RegexpStatusE.exit
  %sub.i.i = sub i64 %t.sroa.5.0, %conv11.i
  %add.ptr.i.i = getelementptr inbounds i8, ptr %t.sroa.0.0, i64 %conv11.i
  %4 = load ptr, ptr @_ZZN3re2L18IsValidCaptureNameEN4absl7debian211string_viewEE2cc, align 8
  %call6 = call noundef zeroext i1 @_ZNK3re29CharClass8ContainsEi(ptr noundef nonnull align 8 dereferenceable(20) %4, i32 noundef %2)
  br i1 %call6, label %while.cond, label %return, !llvm.loop !60

return:                                           ; preds = %while.body, %if.end.i, %while.cond, %if.end5, %_ZN3re2L16StringViewToRuneEPiPN4absl7debian211string_viewEPNS_12RegexpStatusE.exit, %if.then.i, %entry
  %retval.0 = phi i1 [ false, %entry ], [ %cmp.i2, %if.then.i ], [ %cmp.i2, %_ZN3re2L16StringViewToRuneEPiPN4absl7debian211string_viewEPNS_12RegexpStatusE.exit ], [ %cmp.i2, %if.end5 ], [ %cmp.i2, %while.cond ], [ %cmp.i2, %if.end.i ], [ %cmp.i2, %while.body ]
  ret i1 %retval.0
}